target datalayout = "e-m:e-p270:32:32-p271:32:32-p272:64:64-i64:64-i128:128-f80:128-n8:16:32:64-S128"
target triple = "x86_64-pc-linux-gnu"

@.str.1 = private unnamed_addr constant [10 x i8] c"cluster.c\00", align 1
@.str.119 = private unnamed_addr constant [21 x i8] c"nested_elements == 3\00", align 1

; Function Attrs: nounwind uwtable
define internal i32 @isReplicaAvailable(ptr noundef %0) #0 {
  %2 = alloca i32, align 4
  %3 = alloca ptr, align 8
  %4 = alloca i64, align 8
  store ptr %0, ptr %3, align 8, !tbaa !116
  %5 = load ptr, ptr %3, align 8, !tbaa !116
  %6 = call i32 @clusterNodeIsFailing(ptr noundef %5)
  %7 = icmp ne i32 %6, 0
  br i1 %7, label %8, label %9

8:                                                ; preds = %1
  store i32 0, ptr %2, align 4
  br label %21

9:                                                ; preds = %1
  call void @llvm.lifetime.start.p0(i64 8, ptr %4) #14
  %10 = load ptr, ptr %3, align 8, !tbaa !116
  %11 = call i64 @clusterNodeReplOffset(ptr noundef %10)
  store i64 %11, ptr %4, align 8, !tbaa !67
  %12 = load ptr, ptr %3, align 8, !tbaa !116
  %13 = call i32 @clusterNodeIsMyself(ptr noundef %12)
  %14 = icmp ne i32 %13, 0
  br i1 %14, label %15, label %17

15:                                               ; preds = %9
  %16 = call i64 @replicationGetSlaveOffset()
  store i64 %16, ptr %4, align 8, !tbaa !67
  br label %17

17:                                               ; preds = %15, %9
  %18 = load i64, ptr %4, align 8, !tbaa !67
  %19 = icmp ne i64 %18, 0
  %20 = zext i1 %19 to i32
  store i32 %20, ptr %2, align 4
  call void @llvm.lifetime.end.p0(i64 8, ptr %4) #14
  br label %21

21:                                               ; preds = %17, %8
  %22 = load i32, ptr %2, align 4
  ret i32 %22
}

; Function Attrs: nounwind uwtable
define dso_local void @addNodeReplyForClusterSlot(ptr noundef %0, ptr noundef %1, i32 noundef %2, i32 noundef %3) #0 {
  %5 = alloca ptr, align 8
  %6 = alloca ptr, align 8
  %7 = alloca i32, align 4
  %8 = alloca i32, align 4
  %9 = alloca i32, align 4
  %10 = alloca i32, align 4
  store ptr %0, ptr %5, align 8, !tbaa !53
  store ptr %1, ptr %6, align 8, !tbaa !116
  store i32 %2, ptr %7, align 4, !tbaa !10
  store i32 %3, ptr %8, align 4, !tbaa !10
  call void @llvm.lifetime.start.p0(i64 4, ptr %9) #14
  call void @llvm.lifetime.start.p0(i64 4, ptr %10) #14
  store i32 3, ptr %10, align 4, !tbaa !10
  store i32 0, ptr %9, align 4, !tbaa !10
  br label %11

11:                                               ; preds = %26, %4
  %12 = load i32, ptr %9, align 4, !tbaa !10
  %13 = load ptr, ptr %6, align 8, !tbaa !116
  %14 = call i32 @clusterNodeNumSlaves(ptr noundef %13)
  %15 = icmp slt i32 %12, %14
  br i1 %15, label %16, label %29

16:                                               ; preds = %11
  %17 = load ptr, ptr %6, align 8, !tbaa !116
  %18 = load i32, ptr %9, align 4, !tbaa !10
  %19 = call ptr @clusterNodeGetSlave(ptr noundef %17, i32 noundef %18)
  %20 = call i32 @isReplicaAvailable(ptr noundef %19)
  %21 = icmp ne i32 %20, 0
  br i1 %21, label %23, label %22

22:                                               ; preds = %16
  br label %26

23:                                               ; preds = %16
  %24 = load i32, ptr %10, align 4, !tbaa !10
  %25 = add nsw i32 %24, 1
  store i32 %25, ptr %10, align 4, !tbaa !10
  br label %26

26:                                               ; preds = %23, %22
  %27 = load i32, ptr %9, align 4, !tbaa !10
  %28 = add nsw i32 %27, 1
  store i32 %28, ptr %9, align 4, !tbaa !10
  br label %11, !llvm.loop !167

29:                                               ; preds = %11
  %30 = load ptr, ptr %5, align 8, !tbaa !53
  %31 = load i32, ptr %10, align 4, !tbaa !10
  %32 = sext i32 %31 to i64
  call void @addReplyArrayLen(ptr noundef %30, i64 noundef %32)
  %33 = load ptr, ptr %5, align 8, !tbaa !53
  %34 = load i32, ptr %7, align 4, !tbaa !10
  %35 = sext i32 %34 to i64
  call void @addReplyLongLong(ptr noundef %33, i64 noundef %35)
  %36 = load ptr, ptr %5, align 8, !tbaa !53
  %37 = load i32, ptr %8, align 4, !tbaa !10
  %38 = sext i32 %37 to i64
  call void @addReplyLongLong(ptr noundef %36, i64 noundef %38)
  %39 = load ptr, ptr %5, align 8, !tbaa !53
  %40 = load ptr, ptr %6, align 8, !tbaa !116
  call void @addNodeToNodeReply(ptr noundef %39, ptr noundef %40)
  store i32 0, ptr %9, align 4, !tbaa !10
  br label %41

41:                                               ; preds = %60, %29
  %42 = load i32, ptr %9, align 4, !tbaa !10
  %43 = load ptr, ptr %6, align 8, !tbaa !116
  %44 = call i32 @clusterNodeNumSlaves(ptr noundef %43)
  %45 = icmp slt i32 %42, %44
  br i1 %45, label %46, label %63

46:                                               ; preds = %41
  %47 = load ptr, ptr %6, align 8, !tbaa !116
  %48 = load i32, ptr %9, align 4, !tbaa !10
  %49 = call ptr @clusterNodeGetSlave(ptr noundef %47, i32 noundef %48)
  %50 = call i32 @isReplicaAvailable(ptr noundef %49)
  %51 = icmp ne i32 %50, 0
  br i1 %51, label %53, label %52

52:                                               ; preds = %46
  br label %60

53:                                               ; preds = %46
  %54 = load ptr, ptr %5, align 8, !tbaa !53
  %55 = load ptr, ptr %6, align 8, !tbaa !116
  %56 = load i32, ptr %9, align 4, !tbaa !10
  %57 = call ptr @clusterNodeGetSlave(ptr noundef %55, i32 noundef %56)
  call void @addNodeToNodeReply(ptr noundef %54, ptr noundef %57)
  %58 = load i32, ptr %10, align 4, !tbaa !10
  %59 = add nsw i32 %58, -1
  store i32 %59, ptr %10, align 4, !tbaa !10
  br label %60

60:                                               ; preds = %53, %52
  %61 = load i32, ptr %9, align 4, !tbaa !10
  %62 = add nsw i32 %61, 1
  store i32 %62, ptr %9, align 4, !tbaa !10
  br label %41, !llvm.loop !168

63:                                               ; preds = %41
  %64 = load i32, ptr %10, align 4, !tbaa !10
  %65 = icmp eq i32 %64, 3
  %66 = xor i1 %65, true
  %67 = xor i1 %66, true
  %68 = zext i1 %67 to i32
  %69 = sext i32 %68 to i64
  %70 = call i64 @llvm.expect.i64(i64 %69, i64 1)
  %71 = icmp ne i64 %70, 0
  br i1 %71, label %72, label %73

72:                                               ; preds = %63
  br label %75

73:                                               ; preds = %63
  call void @_serverAssert(ptr noundef @.str.119, ptr noundef @.str.1, i32 noundef 1492)
  call void @abort() #15
  unreachable

74:                                               ; No predecessors!
  br label %75

75:                                               ; preds = %74, %72
  call void @llvm.lifetime.end.p0(i64 4, ptr %10) #14
  call void @llvm.lifetime.end.p0(i64 4, ptr %9) #14
  ret void
}