; Function Attrs: nounwind uwtable
define dso_local void @addNodeReplyForClusterSlot(ptr noundef %0, ptr noundef %1, i32 noundef %2, i32 noundef %3) local_unnamed_addr #0 {
  %5 = tail call i32 @clusterNodeNumSlaves(ptr noundef %1) #16
  %6 = icmp sgt i32 %5, 0
  br i1 %6, label %.lr.ph, label %._crit_edge

.lr.ph:                                           ; preds = %4, %15
  %.038 = phi i32 [ %16, %15 ], [ 3, %4 ]
  %.02337 = phi i32 [ %17, %15 ], [ 0, %4 ]
  %7 = tail call ptr @clusterNodeGetSlave(ptr noundef %1, i32 noundef %.02337) #16
  %8 = tail call i32 @clusterNodeIsFailing(ptr noundef %7) #16
  %.not.i = icmp eq i32 %8, 0
  br i1 %.not.i, label %9, label %isReplicaAvailable.exit.thread

9:                                                ; preds = %.lr.ph
  %10 = tail call i64 @clusterNodeReplOffset(ptr noundef %7) #16
  %11 = tail call i32 @clusterNodeIsMyself(ptr noundef %7) #16
  %.not5.i = icmp eq i32 %11, 0
  br i1 %.not5.i, label %isReplicaAvailable.exit, label %12

12:                                               ; preds = %9
  %13 = tail call i64 @replicationGetSlaveOffset() #16
  br label %isReplicaAvailable.exit

isReplicaAvailable.exit:                          ; preds = %9, %12
  %.0.i = phi i64 [ %13, %12 ], [ %10, %9 ]
  %.0.i.fr = freeze i64 %.0.i
  %.not = icmp eq i64 %.0.i.fr, 0
  %14 = add nsw i32 %.038, 1
  br i1 %.not, label %isReplicaAvailable.exit.thread, label %15

isReplicaAvailable.exit.thread:                   ; preds = %.lr.ph, %isReplicaAvailable.exit
  br label %15

15:                                               ; preds = %isReplicaAvailable.exit, %isReplicaAvailable.exit.thread
  %16 = phi i32 [ %.038, %isReplicaAvailable.exit.thread ], [ %14, %isReplicaAvailable.exit ]
  %17 = add nuw nsw i32 %.02337, 1
  %18 = tail call i32 @clusterNodeNumSlaves(ptr noundef %1) #16
  %19 = icmp slt i32 %17, %18
  br i1 %19, label %.lr.ph, label %._crit_edge, !llvm.loop !145

._crit_edge:                                      ; preds = %15, %4
  %.0.lcssa = phi i32 [ 3, %4 ], [ %16, %15 ]
  %20 = sext i32 %.0.lcssa to i64
  tail call void @addReplyArrayLen(ptr noundef %0, i64 noundef %20) #16
  %21 = sext i32 %2 to i64
  tail call void @addReplyLongLong(ptr noundef %0, i64 noundef %21) #16
  %22 = sext i32 %3 to i64
  tail call void @addReplyLongLong(ptr noundef %0, i64 noundef %22) #16
  tail call void @addNodeToNodeReply(ptr noundef %0, ptr noundef %1)
  %23 = tail call i32 @clusterNodeNumSlaves(ptr noundef %1) #16
  %24 = icmp sgt i32 %23, 0
  br i1 %24, label %.lr.ph42, label %._crit_edge43

.lr.ph42:                                         ; preds = %._crit_edge, %isReplicaAvailable.exit30.thread
  %.240 = phi i32 [ %.3, %isReplicaAvailable.exit30.thread ], [ %.0.lcssa, %._crit_edge ]
  %.12439 = phi i32 [ %35, %isReplicaAvailable.exit30.thread ], [ 0, %._crit_edge ]
  %25 = tail call ptr @clusterNodeGetSlave(ptr noundef %1, i32 noundef %.12439) #16
  %26 = tail call i32 @clusterNodeIsFailing(ptr noundef %25) #16
  %.not.i26 = icmp eq i32 %26, 0
  br i1 %.not.i26, label %27, label %isReplicaAvailable.exit30.thread

27:                                               ; preds = %.lr.ph42
  %28 = tail call i64 @clusterNodeReplOffset(ptr noundef %25) #16
  %29 = tail call i32 @clusterNodeIsMyself(ptr noundef %25) #16
  %.not5.i28 = icmp eq i32 %29, 0
  br i1 %.not5.i28, label %isReplicaAvailable.exit30, label %30

30:                                               ; preds = %27
  %31 = tail call i64 @replicationGetSlaveOffset() #16
  br label %isReplicaAvailable.exit30

isReplicaAvailable.exit30:                        ; preds = %27, %30
  %.0.i29 = phi i64 [ %31, %30 ], [ %28, %27 ]
  %.not36 = icmp eq i64 %.0.i29, 0
  br i1 %.not36, label %isReplicaAvailable.exit30.thread, label %32

32:                                               ; preds = %isReplicaAvailable.exit30
  %33 = tail call ptr @clusterNodeGetSlave(ptr noundef %1, i32 noundef %.12439) #16
  tail call void @addNodeToNodeReply(ptr noundef %0, ptr noundef %33)
  %34 = add nsw i32 %.240, -1
  br label %isReplicaAvailable.exit30.thread

isReplicaAvailable.exit30.thread:                 ; preds = %.lr.ph42, %isReplicaAvailable.exit30, %32
  %.3 = phi i32 [ %34, %32 ], [ %.240, %isReplicaAvailable.exit30 ], [ %.240, %.lr.ph42 ]
  %35 = add nuw nsw i32 %.12439, 1
  %36 = tail call i32 @clusterNodeNumSlaves(ptr noundef %1) #16
  %37 = icmp slt i32 %35, %36
  br i1 %37, label %.lr.ph42, label %._crit_edge43, !llvm.loop !146

._crit_edge43:                                    ; preds = %isReplicaAvailable.exit30.thread, %._crit_edge
  %.2.lcssa = phi i32 [ %.0.lcssa, %._crit_edge ], [ %.3, %isReplicaAvailable.exit30.thread ]
  %38 = icmp eq i32 %.2.lcssa, 3
  br i1 %38, label %40, label %39, !prof !103

39:                                               ; preds = %._crit_edge43
  tail call void @_serverAssert(ptr noundef nonnull @.str.119, ptr noundef nonnull @.str.1, i32 noundef 1492) #16
  tail call void @abort() #17
  unreachable

40:                                               ; preds = %._crit_edge43
  ret void
}